target datalayout = "e-m:e-p270:32:32-p271:32:32-p272:64:64-i64:64-i128:128-f80:128-n8:16:32:64-S128"
target triple = "x86_64-pc-linux-gnu"

%struct.Emb_Man_t_ = type { ptr, ptr, ptr, i32, i32, i32, ptr, i32, i32, ptr, i32, i32, ptr, ptr, ptr, ptr }
%struct.Vec_Int_t_ = type { i32, i32, ptr }

@.str.2 = private unnamed_addr constant [15 x i8] c"i/o =%7d/%7d  \00", align 1
@.str.3 = private unnamed_addr constant [10 x i8] c"ff =%7d  \00", align 1
@.str.4 = private unnamed_addr constant [12 x i8] c"node =%8d  \00", align 1
@.str.5 = private unnamed_addr constant [11 x i8] c"obj =%8d  \00", align 1
@.str.6 = private unnamed_addr constant [14 x i8] c"mem =%5.2f MB\00", align 1
@.str.7 = private unnamed_addr constant [2 x i8] c"\0A\00", align 1

; Function Attrs: inlinehint nounwind uwtable
define internal i32 @Vec_IntSize(ptr noundef %0) #4 {
  %2 = alloca ptr, align 8
  store ptr %0, ptr %2, align 8, !tbaa !62
  %3 = load ptr, ptr %2, align 8, !tbaa !62
  %4 = getelementptr inbounds nuw %struct.Vec_Int_t_, ptr %3, i32 0, i32 1
  %5 = load i32, ptr %4, align 4, !tbaa !63
  ret i32 %5
}

; Function Attrs: inlinehint nounwind uwtable
define internal i32 @Emb_ManObjNum(ptr noundef %0) #4 {
  %2 = alloca ptr, align 8
  store ptr %0, ptr %2, align 8, !tbaa !15
  %3 = load ptr, ptr %2, align 8, !tbaa !15
  %4 = getelementptr inbounds nuw %struct.Emb_Man_t_, ptr %3, i32 0, i32 3
  %5 = load i32, ptr %4, align 8, !tbaa !32
  ret i32 %5
}

; Function Attrs: inlinehint nounwind uwtable
define internal i32 @Emb_ManNodeNum(ptr noundef %0) #4 {
  %2 = alloca ptr, align 8
  store ptr %0, ptr %2, align 8, !tbaa !15
  %3 = load ptr, ptr %2, align 8, !tbaa !15
  %4 = getelementptr inbounds nuw %struct.Emb_Man_t_, ptr %3, i32 0, i32 3
  %5 = load i32, ptr %4, align 8, !tbaa !32
  %6 = load ptr, ptr %2, align 8, !tbaa !15
  %7 = getelementptr inbounds nuw %struct.Emb_Man_t_, ptr %6, i32 0, i32 1
  %8 = load ptr, ptr %7, align 8, !tbaa !25
  %9 = call i32 @Vec_IntSize(ptr noundef %8)
  %10 = sub nsw i32 %5, %9
  %11 = load ptr, ptr %2, align 8, !tbaa !15
  %12 = getelementptr inbounds nuw %struct.Emb_Man_t_, ptr %11, i32 0, i32 2
  %13 = load ptr, ptr %12, align 8, !tbaa !26
  %14 = call i32 @Vec_IntSize(ptr noundef %13)
  %15 = sub nsw i32 %10, %14
  ret i32 %15
}

; Function Attrs: inlinehint nounwind uwtable
define internal i32 @Emb_ManRegNum(ptr noundef %0) #4 {
  %2 = alloca ptr, align 8
  store ptr %0, ptr %2, align 8, !tbaa !15
  %3 = load ptr, ptr %2, align 8, !tbaa !15
  %4 = getelementptr inbounds nuw %struct.Emb_Man_t_, ptr %3, i32 0, i32 4
  %5 = load i32, ptr %4, align 4, !tbaa !24
  ret i32 %5
}

; Function Attrs: inlinehint nounwind uwtable
define internal i32 @Emb_ManPoNum(ptr noundef %0) #4 {
  %2 = alloca ptr, align 8
  store ptr %0, ptr %2, align 8, !tbaa !15
  %3 = load ptr, ptr %2, align 8, !tbaa !15
  %4 = getelementptr inbounds nuw %struct.Emb_Man_t_, ptr %3, i32 0, i32 2
  %5 = load ptr, ptr %4, align 8, !tbaa !26
  %6 = call i32 @Vec_IntSize(ptr noundef %5)
  %7 = load ptr, ptr %2, align 8, !tbaa !15
  %8 = getelementptr inbounds nuw %struct.Emb_Man_t_, ptr %7, i32 0, i32 4
  %9 = load i32, ptr %8, align 4, !tbaa !24
  %10 = sub nsw i32 %6, %9
  ret i32 %10
}

; Function Attrs: inlinehint nounwind uwtable
define internal i32 @Emb_ManPiNum(ptr noundef %0) #4 {
  %2 = alloca ptr, align 8
  store ptr %0, ptr %2, align 8, !tbaa !15
  %3 = load ptr, ptr %2, align 8, !tbaa !15
  %4 = getelementptr inbounds nuw %struct.Emb_Man_t_, ptr %3, i32 0, i32 1
  %5 = load ptr, ptr %4, align 8, !tbaa !25
  %6 = call i32 @Vec_IntSize(ptr noundef %5)
  %7 = load ptr, ptr %2, align 8, !tbaa !15
  %8 = getelementptr inbounds nuw %struct.Emb_Man_t_, ptr %7, i32 0, i32 4
  %9 = load i32, ptr %8, align 4, !tbaa !24
  %10 = sub nsw i32 %6, %9
  ret i32 %10
}

; Function Attrs: nounwind uwtable
define void @Emb_ManPrintStats(ptr noundef %0) #0 {
  %2 = alloca ptr, align 8
  store ptr %0, ptr %2, align 8, !tbaa !15
  %3 = load ptr, ptr %2, align 8, !tbaa !15
  %4 = call i32 @Emb_ManPiNum(ptr noundef %3)
  %5 = load ptr, ptr %2, align 8, !tbaa !15
  %6 = call i32 @Emb_ManPoNum(ptr noundef %5)
  %7 = call i32 (ptr, ...) @printf(ptr noundef @.str.2, i32 noundef %4, i32 noundef %6)
  %8 = load ptr, ptr %2, align 8, !tbaa !15
  %9 = call i32 @Emb_ManRegNum(ptr noundef %8)
  %10 = icmp ne i32 %9, 0
  br i1 %10, label %11, label %15

11:                                               ; preds = %1
  %12 = load ptr, ptr %2, align 8, !tbaa !15
  %13 = call i32 @Emb_ManRegNum(ptr noundef %12)
  %14 = call i32 (ptr, ...) @printf(ptr noundef @.str.3, i32 noundef %13)
  br label %15

15:                                               ; preds = %11, %1
  %16 = load ptr, ptr %2, align 8, !tbaa !15
  %17 = call i32 @Emb_ManNodeNum(ptr noundef %16)
  %18 = call i32 (ptr, ...) @printf(ptr noundef @.str.4, i32 noundef %17)
  %19 = load ptr, ptr %2, align 8, !tbaa !15
  %20 = call i32 @Emb_ManObjNum(ptr noundef %19)
  %21 = call i32 (ptr, ...) @printf(ptr noundef @.str.5, i32 noundef %20)
  %22 = load ptr, ptr %2, align 8, !tbaa !15
  %23 = getelementptr inbounds nuw %struct.Emb_Man_t_, ptr %22, i32 0, i32 7
  %24 = load i32, ptr %23, align 8, !tbaa !27
  %25 = sitofp i32 %24 to double
  %26 = fmul double 4.000000e+00, %25
  %27 = fdiv double %26, 0x4130000000000000
  %28 = call i32 (ptr, ...) @printf(ptr noundef @.str.6, double noundef %27)
  %29 = call i32 (ptr, ...) @printf(ptr noundef @.str.7)
  ret void
}