; Function Attrs: nofree nounwind uwtable
define void @Emb_ManPrintStats(ptr noundef readonly captures(none) %0) local_unnamed_addr #8 {
  %2 = getelementptr i8, ptr %0, i64 8
  %.val = load ptr, ptr %2, align 8, !tbaa !42
  %3 = getelementptr i8, ptr %0, i64 28
  %.val7 = load i32, ptr %3, align 4, !tbaa !37
  %4 = getelementptr i8, ptr %.val, i64 4
  %.val.val = load i32, ptr %4, align 4, !tbaa !39
  %5 = sub nsw i32 %.val.val, %.val7
  %6 = getelementptr i8, ptr %0, i64 16
  %.val8 = load ptr, ptr %6, align 8, !tbaa !44
  %7 = getelementptr i8, ptr %.val8, i64 4
  %.val8.val = load i32, ptr %7, align 4, !tbaa !39
  %8 = sub nsw i32 %.val8.val, %.val7
  %9 = tail call i32 (ptr, ...) @printf(ptr noundef nonnull dereferenceable(1) @.str.2, i32 noundef %5, i32 noundef %8)
  %.val10 = load i32, ptr %3, align 4, !tbaa !37
  %.not = icmp eq i32 %.val10, 0
  br i1 %.not, label %12, label %10

10:                                               ; preds = %1
  %11 = tail call i32 (ptr, ...) @printf(ptr noundef nonnull dereferenceable(1) @.str.3, i32 noundef %.val10)
  br label %12

12:                                               ; preds = %10, %1
  %13 = getelementptr inbounds nuw i8, ptr %0, i64 24
  %14 = load i32, ptr %13, align 8, !tbaa !53
  %15 = load ptr, ptr %2, align 8, !tbaa !42
  %16 = getelementptr i8, ptr %15, i64 4
  %.val3.i = load i32, ptr %16, align 4, !tbaa !39
  %17 = load ptr, ptr %6, align 8, !tbaa !44
  %18 = getelementptr i8, ptr %17, i64 4
  %.val.i = load i32, ptr %18, align 4, !tbaa !39
  %19 = add i32 %.val3.i, %.val.i
  %20 = sub i32 %14, %19
  %21 = tail call i32 (ptr, ...) @printf(ptr noundef nonnull dereferenceable(1) @.str.4, i32 noundef %20)
  %.val12 = load i32, ptr %13, align 8, !tbaa !53
  %22 = tail call i32 (ptr, ...) @printf(ptr noundef nonnull dereferenceable(1) @.str.5, i32 noundef %.val12)
  %23 = getelementptr inbounds nuw i8, ptr %0, i64 48
  %24 = load i32, ptr %23, align 8, !tbaa !46
  %25 = sitofp i32 %24 to double
  %26 = fmul double %25, 4.000000e+00
  %27 = fmul double %26, 0x3EB0000000000000
  %28 = tail call i32 (ptr, ...) @printf(ptr noundef nonnull dereferenceable(1) @.str.6, double noundef %27)
  %putchar = tail call i32 @putchar(i32 10)
  ret void
}